target datalayout = "e-m:e-p270:32:32-p271:32:32-p272:64:64-i64:64-i128:128-f80:128-n8:16:32:64-S128"
target triple = "x86_64-pc-linux-gnu"

%struct.H5HF_block_iter_t = type { i8, ptr }
%struct.H5HF_hdr_t = type { %struct.H5C_cache_entry_t, i32, i32, i8, i8, i8, i8, %struct.H5HF_dtable_t, i64, i64, i32, i64, i64, %struct.H5O_pline_t, i64, i32, i64, i64, i64, i64, i64, i64, i64, i64, i64, i64, i64, i32, ptr, i64, i8, i8, i8, ptr, i32, ptr, %struct.H5HF_block_iter_t, ptr, i64, i8, i8, i64, i8, i8, i8, i8 }
%struct.H5C_cache_entry_t = type { ptr, i64, i64, ptr, i8, ptr, i8, i8, i8, i8, i32, i8, i8, i8, i8, i8, i32, ptr, i32, i32, i32, i32, i32, i8, i8, ptr, ptr, ptr, ptr, ptr, ptr, i8, i32, i8, i64, ptr, i64, i64, i32, i8, i32, i32, i8, ptr, ptr, ptr }
%struct.H5HF_dtable_t = type { %struct.H5HF_dtable_cparam_t, i64, i32, i32, i32, i32, i32, i32, i32, i64, ptr, ptr, ptr, ptr }
%struct.H5HF_dtable_cparam_t = type { i32, i64, i64, i32, i32 }
%struct.H5O_pline_t = type { %struct.H5O_shared_t, i32, i64, i64, ptr }
%struct.H5O_shared_t = type { i32, ptr, i32, %union.anon }
%union.anon = type { %struct.H5O_mesg_loc_t }
%struct.H5O_mesg_loc_t = type { i32, i64 }
%struct.H5HF_block_loc_t = type { i32, i32, i32, ptr, ptr }

; Function Attrs: nounwind uwtable
define i32 @H5HF__man_iter_next(ptr noundef %0, ptr noundef %1, i32 noundef %2) #0 {
  %4 = alloca ptr, align 8
  %5 = alloca ptr, align 8
  %6 = alloca i32, align 4
  store ptr %0, ptr %4, align 8
  store ptr %1, ptr %5, align 8
  store i32 %2, ptr %6, align 4
  %7 = load i32, ptr %6, align 4
  %8 = load ptr, ptr %5, align 8
  %9 = getelementptr inbounds %struct.H5HF_block_iter_t, ptr %8, i32 0, i32 1
  %10 = load ptr, ptr %9, align 8
  %11 = getelementptr inbounds %struct.H5HF_block_loc_t, ptr %10, i32 0, i32 2
  %12 = load i32, ptr %11, align 8
  %13 = add i32 %12, %7
  store i32 %13, ptr %11, align 8
  %14 = load ptr, ptr %5, align 8
  %15 = getelementptr inbounds %struct.H5HF_block_iter_t, ptr %14, i32 0, i32 1
  %16 = load ptr, ptr %15, align 8
  %17 = getelementptr inbounds %struct.H5HF_block_loc_t, ptr %16, i32 0, i32 2
  %18 = load i32, ptr %17, align 8
  %19 = load ptr, ptr %4, align 8
  %20 = getelementptr inbounds %struct.H5HF_hdr_t, ptr %19, i32 0, i32 7
  %21 = getelementptr inbounds %struct.H5HF_dtable_t, ptr %20, i32 0, i32 0
  %22 = getelementptr inbounds %struct.H5HF_dtable_cparam_t, ptr %21, i32 0, i32 0
  %23 = load i32, ptr %22, align 8
  %24 = udiv i32 %18, %23
  %25 = load ptr, ptr %5, align 8
  %26 = getelementptr inbounds %struct.H5HF_block_iter_t, ptr %25, i32 0, i32 1
  %27 = load ptr, ptr %26, align 8
  %28 = getelementptr inbounds %struct.H5HF_block_loc_t, ptr %27, i32 0, i32 0
  store i32 %24, ptr %28, align 8
  %29 = load ptr, ptr %5, align 8
  %30 = getelementptr inbounds %struct.H5HF_block_iter_t, ptr %29, i32 0, i32 1
  %31 = load ptr, ptr %30, align 8
  %32 = getelementptr inbounds %struct.H5HF_block_loc_t, ptr %31, i32 0, i32 2
  %33 = load i32, ptr %32, align 8
  %34 = load ptr, ptr %4, align 8
  %35 = getelementptr inbounds %struct.H5HF_hdr_t, ptr %34, i32 0, i32 7
  %36 = getelementptr inbounds %struct.H5HF_dtable_t, ptr %35, i32 0, i32 0
  %37 = getelementptr inbounds %struct.H5HF_dtable_cparam_t, ptr %36, i32 0, i32 0
  %38 = load i32, ptr %37, align 8
  %39 = urem i32 %33, %38
  %40 = load ptr, ptr %5, align 8
  %41 = getelementptr inbounds %struct.H5HF_block_iter_t, ptr %40, i32 0, i32 1
  %42 = load ptr, ptr %41, align 8
  %43 = getelementptr inbounds %struct.H5HF_block_loc_t, ptr %42, i32 0, i32 1
  store i32 %39, ptr %43, align 4
  ret i32 0
}